target datalayout = "e-m:e-p270:32:32-p271:32:32-p272:64:64-i64:64-i128:128-f80:128-n8:16:32:64-S128"
target triple = "x86_64-pc-linux-gnu"

@ZPointerLoadShift = external global i64, align 8
@ZPointerLoadBadMask = external global i64, align 8
@ZPointerStoreBadMask = external global i64, align 8
@ZPointerStoreGoodMask = external global i64, align 8
@.str.4 = private unnamed_addr constant [54 x i8] c"src/hotspot/cpu/x86/gc/z/zBarrierSetAssembler_x86.cpp\00", align 1
@g_assert_poison = external global ptr, align 8
@ZPointerMarkBadMask = external global i64, align 8

; Function Attrs: mustprogress nounwind uwtable
define internal noundef zeroext i16 @_ZL30patch_barrier_relocation_valuei(i32 noundef %0) #1 {
  %2 = alloca i16, align 2
  %3 = alloca i32, align 4
  store i32 %0, ptr %3, align 4
  %4 = load i32, ptr %3, align 4
  switch i32 %4, label %20 [
    i32 0, label %5
    i32 2, label %8
    i32 1, label %11
    i32 3, label %14
    i32 5, label %14
    i32 6, label %14
    i32 4, label %17
  ]

5:                                                ; preds = %1
  %6 = load i64, ptr @ZPointerLoadShift, align 8
  %7 = trunc i64 %6 to i16
  store i16 %7, ptr %2, align 2
  br label %24

8:                                                ; preds = %1
  %9 = load i64, ptr @ZPointerMarkBadMask, align 8
  %10 = trunc i64 %9 to i16
  store i16 %10, ptr %2, align 2
  br label %24

11:                                               ; preds = %1
  %12 = load i64, ptr @ZPointerLoadBadMask, align 8
  %13 = trunc i64 %12 to i16
  store i16 %13, ptr %2, align 2
  br label %24

14:                                               ; preds = %1, %1, %1
  %15 = load i64, ptr @ZPointerStoreGoodMask, align 8
  %16 = trunc i64 %15 to i16
  store i16 %16, ptr %2, align 2
  br label %24

17:                                               ; preds = %1
  %18 = load i64, ptr @ZPointerStoreBadMask, align 8
  %19 = trunc i64 %18 to i16
  store i16 %19, ptr %2, align 2
  br label %24

20:                                               ; preds = %1
  br label %21

21:                                               ; preds = %20
  %22 = load ptr, ptr @g_assert_poison, align 8
  store i8 88, ptr %22, align 1
  call void @_Z28report_should_not_reach_herePKci(ptr noundef @.str.4, i32 noundef 1317) #8
  unreachable

23:                                               ; No predecessors!
  store i16 0, ptr %2, align 2
  br label %24

24:                                               ; preds = %23, %17, %14, %11, %8, %5
  %25 = load i16, ptr %2, align 2
  ret i16 %25
}

; Function Attrs: mustprogress nounwind uwtable
define internal noundef i32 @_ZL31patch_barrier_relocation_offseti(i32 noundef %0) #1 {
  %2 = alloca i32, align 4
  %3 = alloca i32, align 4
  store i32 %0, ptr %3, align 4
  %4 = load i32, ptr %3, align 4
  switch i32 %4, label %9 [
    i32 0, label %5
    i32 3, label %6
    i32 1, label %7
    i32 2, label %7
    i32 4, label %7
    i32 5, label %7
    i32 6, label %8
  ]

5:                                                ; preds = %1
  store i32 3, ptr %2, align 4
  br label %13

6:                                                ; preds = %1
  store i32 -2, ptr %2, align 4
  br label %13

7:                                                ; preds = %1, %1, %1, %1
  store i32 -4, ptr %2, align 4
  br label %13

8:                                                ; preds = %1
  store i32 -3, ptr %2, align 4
  br label %13

9:                                                ; preds = %1
  br label %10

10:                                               ; preds = %9
  %11 = load ptr, ptr @g_assert_poison, align 8
  store i8 88, ptr %11, align 1
  call void @_Z28report_should_not_reach_herePKci(ptr noundef @.str.4, i32 noundef 1292) #8
  unreachable

12:                                               ; No predecessors!
  store i32 0, ptr %2, align 4
  br label %13

13:                                               ; preds = %12, %8, %7, %6, %5
  %14 = load i32, ptr %2, align 4
  ret i32 %14
}

; Function Attrs: mustprogress nounwind uwtable
define hidden void @_ZN20ZBarrierSetAssembler24patch_barrier_relocationEPhi(ptr noundef nonnull align 8 dereferenceable(56) %0, ptr noundef %1, i32 noundef %2) #1 align 2 {
  %4 = alloca ptr, align 8
  %5 = alloca ptr, align 8
  %6 = alloca i32, align 4
  %7 = alloca i32, align 4
  %8 = alloca i16, align 2
  %9 = alloca ptr, align 8
  store ptr %0, ptr %4, align 8
  store ptr %1, ptr %5, align 8
  store i32 %2, ptr %6, align 4
  %10 = load i32, ptr %6, align 4
  %11 = call noundef i32 @_ZL31patch_barrier_relocation_offseti(i32 noundef %10)
  store i32 %11, ptr %7, align 4
  %12 = load i32, ptr %6, align 4
  %13 = call noundef zeroext i16 @_ZL30patch_barrier_relocation_valuei(i32 noundef %12)
  store i16 %13, ptr %8, align 2
  %14 = load ptr, ptr %5, align 8
  %15 = load i32, ptr %7, align 4
  %16 = sext i32 %15 to i64
  %17 = getelementptr inbounds i8, ptr %14, i64 %16
  store ptr %17, ptr %9, align 8
  %18 = load i32, ptr %6, align 4
  %19 = icmp eq i32 %18, 0
  br i1 %19, label %20, label %24

20:                                               ; preds = %3
  %21 = load i16, ptr %8, align 2
  %22 = trunc i16 %21 to i8
  %23 = load ptr, ptr %9, align 8
  store i8 %22, ptr %23, align 1
  br label %27

24:                                               ; preds = %3
  %25 = load i16, ptr %8, align 2
  %26 = load ptr, ptr %9, align 8
  store i16 %25, ptr %26, align 2
  br label %27

27:                                               ; preds = %24, %20
  ret void
}