; Function Attrs: mustprogress nounwind uwtable
define hidden void @_ZN20ZBarrierSetAssembler24patch_barrier_relocationEPhi(ptr nocapture noundef nonnull readnone align 8 dereferenceable(56) %0, ptr nocapture noundef writeonly %1, i32 noundef %2) local_unnamed_addr #1 align 2 {
  switch i32 %2, label %5 [
    i32 0, label %_ZL31patch_barrier_relocation_offseti.exit.thread12
    i32 3, label %_ZL31patch_barrier_relocation_offseti.exit.thread
    i32 6, label %4
    i32 4, label %9
    i32 2, label %_ZL31patch_barrier_relocation_offseti.exit.thread.fold.split
    i32 1, label %7
    i32 5, label %8
  ]

4:                                                ; preds = %3
  br label %_ZL31patch_barrier_relocation_offseti.exit.thread

5:                                                ; preds = %3
  %6 = load ptr, ptr @g_assert_poison, align 8
  store i8 88, ptr %6, align 1
  tail call void @_Z28report_should_not_reach_herePKci(ptr noundef nonnull @.str.4, i32 noundef 1292) #13
  unreachable

7:                                                ; preds = %3
  br label %_ZL31patch_barrier_relocation_offseti.exit.thread

8:                                                ; preds = %3
  br label %_ZL31patch_barrier_relocation_offseti.exit.thread

9:                                                ; preds = %3
  br label %_ZL31patch_barrier_relocation_offseti.exit.thread

_ZL31patch_barrier_relocation_offseti.exit.thread12: ; preds = %3
  %.0.in.i = load i64, ptr @ZPointerLoadShift, align 8
  %10 = getelementptr inbounds i8, ptr %1, i64 3
  %11 = trunc i64 %.0.in.i to i8
  store i8 %11, ptr %10, align 1
  br label %13

_ZL31patch_barrier_relocation_offseti.exit.thread.fold.split: ; preds = %3
  br label %_ZL31patch_barrier_relocation_offseti.exit.thread

_ZL31patch_barrier_relocation_offseti.exit.thread: ; preds = %3, %_ZL31patch_barrier_relocation_offseti.exit.thread.fold.split, %4, %7, %8, %9
  %.0.i11.ph = phi i64 [ -4, %8 ], [ -4, %7 ], [ -4, %9 ], [ -3, %4 ], [ -2, %3 ], [ -4, %_ZL31patch_barrier_relocation_offseti.exit.thread.fold.split ]
  %.0.in.in.i.ph = phi ptr [ @ZPointerStoreGoodMask, %8 ], [ @ZPointerLoadBadMask, %7 ], [ @ZPointerStoreBadMask, %9 ], [ @ZPointerStoreGoodMask, %4 ], [ @ZPointerStoreGoodMask, %3 ], [ @ZPointerMarkBadMask, %_ZL31patch_barrier_relocation_offseti.exit.thread.fold.split ]
  %.0.in.i16 = load i64, ptr %.0.in.in.i.ph, align 8
  %.0.i817 = trunc i64 %.0.in.i16 to i16
  %12 = getelementptr inbounds i8, ptr %1, i64 %.0.i11.ph
  store i16 %.0.i817, ptr %12, align 2
  br label %13

13:                                               ; preds = %_ZL31patch_barrier_relocation_offseti.exit.thread, %_ZL31patch_barrier_relocation_offseti.exit.thread12
  ret void
}